; Function Attrs: nounwind uwtable
define dso_local void @trace2_timer_start(i32 noundef %0) local_unnamed_addr #0 {
  %.b = load i1, ptr @trace2_enabled, align 4
  br i1 %.b, label %2, label %6

2:                                                ; preds = %1
  %3 = icmp ugt i32 %0, 1
  br i1 %3, label %4, label %5

4:                                                ; preds = %2
  tail call void (ptr, i32, ptr, ...) @BUG_fl(ptr noundef nonnull @.str.1, i32 noundef 1014, ptr noundef nonnull @.str.5, i32 noundef %0) #13
  unreachable

5:                                                ; preds = %2
  tail call void @tr2_start_timer(i32 noundef %0) #11
  br label %6

6:                                                ; preds = %1, %5
  ret void
}